#include <math.h>
#include <stdio.h>
#include <stdlib.h>
#include <string.h>

int main()
{
	int i,j,x,m=0,p=0,t=0;
	char a[10000];
	gets(a);
    for(i=0;a[i]!='\0';i++)
	{
		t++;
	}
	for(i=0;i<=t;i++)
	{
		if(a[i]!=' '&&a[i]!='\0')
			 p++;				
		if(a[i]==' ')
		{
		   if(p!=0)
		   {
			   printf("%d,",p);
		       p=0;
		   }
		}
		if(a[i]=='\0')
		{
		   if(p!=0)
		   {
			   printf("%d",p);
		       p=0;
		   }
		}
	}
}
	